; Function Attrs: cold nounwind optsize uwtable
define internal range(i32 -2147483648, 1) i32 @vp5_decode_init(ptr noundef %0) #0 {
  %2 = getelementptr inbounds nuw i8, ptr %0, i64 32
  %3 = load ptr, ptr %2, align 8, !tbaa !4
  %4 = tail call i32 @ff_vp56_init_context(ptr noundef %0, ptr noundef %3, i32 noundef 1, i32 noundef 0) #9
  %5 = icmp slt i32 %4, 0
  br i1 %5, label %15, label %6

6:                                                ; preds = %1
  %7 = getelementptr inbounds nuw i8, ptr %3, i64 568
  tail call void @ff_vp5dsp_init(ptr noundef nonnull %7) #9
  %8 = getelementptr inbounds nuw i8, ptr %3, i64 3184
  store ptr @vp5_coord_div, ptr %8, align 16, !tbaa !27
  %9 = getelementptr inbounds nuw i8, ptr %3, i64 3192
  store ptr @vp5_parse_vector_adjustment, ptr %9, align 8, !tbaa !44
  %10 = getelementptr inbounds nuw i8, ptr %3, i64 3208
  store ptr @vp5_parse_coeff, ptr %10, align 8, !tbaa !45
  %11 = getelementptr inbounds nuw i8, ptr %3, i64 3216
  store ptr @vp5_default_models_init, ptr %11, align 16, !tbaa !46
  %12 = getelementptr inbounds nuw i8, ptr %3, i64 3224
  store ptr @vp5_parse_vector_models, ptr %12, align 8, !tbaa !47
  %13 = getelementptr inbounds nuw i8, ptr %3, i64 3232
  store ptr @vp5_parse_coeff_models, ptr %13, align 16, !tbaa !48
  %14 = getelementptr inbounds nuw i8, ptr %3, i64 3240
  store ptr @vp5_parse_header, ptr %14, align 8, !tbaa !49
  br label %15

15:                                               ; preds = %1, %6
  %.0 = phi i32 [ 0, %6 ], [ %4, %1 ]
  ret i32 %.0
}